target datalayout = "e-m:e-p270:32:32-p271:32:32-p272:64:64-i64:64-i128:128-f80:128-n8:16:32:64-S128"
target triple = "x86_64-pc-linux-gnu"

%struct.sentinelScriptJob = type { i32, i32, ptr, i64, i32 }

; Function Attrs: nounwind uwtable
define dso_local void @sentinelReleaseScriptJob(ptr noundef %0) #0 {
  %2 = alloca ptr, align 8
  %3 = alloca i32, align 4
  store ptr %0, ptr %2, align 8, !tbaa !102
  call void @llvm.lifetime.start.p0(i64 4, ptr %3) #16
  store i32 0, ptr %3, align 4, !tbaa !82
  br label %4

4:                                                ; preds = %13, %1
  %5 = load ptr, ptr %2, align 8, !tbaa !102
  %6 = getelementptr inbounds nuw %struct.sentinelScriptJob, ptr %5, i32 0, i32 2
  %7 = load ptr, ptr %6, align 8, !tbaa !107
  %8 = load i32, ptr %3, align 4, !tbaa !82
  %9 = sext i32 %8 to i64
  %10 = getelementptr inbounds ptr, ptr %7, i64 %9
  %11 = load ptr, ptr %10, align 8, !tbaa !93
  %12 = icmp ne ptr %11, null
  br i1 %12, label %13, label %22

13:                                               ; preds = %4
  %14 = load ptr, ptr %2, align 8, !tbaa !102
  %15 = getelementptr inbounds nuw %struct.sentinelScriptJob, ptr %14, i32 0, i32 2
  %16 = load ptr, ptr %15, align 8, !tbaa !107
  %17 = load i32, ptr %3, align 4, !tbaa !82
  %18 = add nsw i32 %17, 1
  store i32 %18, ptr %3, align 4, !tbaa !82
  %19 = sext i32 %17 to i64
  %20 = getelementptr inbounds ptr, ptr %16, i64 %19
  %21 = load ptr, ptr %20, align 8, !tbaa !93
  call void @sdsfree(ptr noundef %21)
  br label %4, !llvm.loop !117

22:                                               ; preds = %4
  %23 = load ptr, ptr %2, align 8, !tbaa !102
  %24 = getelementptr inbounds nuw %struct.sentinelScriptJob, ptr %23, i32 0, i32 2
  %25 = load ptr, ptr %24, align 8, !tbaa !107
  call void @zfree(ptr noundef %25)
  %26 = load ptr, ptr %2, align 8, !tbaa !102
  call void @zfree(ptr noundef %26)
  call void @llvm.lifetime.end.p0(i64 4, ptr %3) #16
  ret void
}