; Function Attrs: nounwind uwtable
define dso_local void @sentinelReleaseScriptJob(ptr noundef %0) local_unnamed_addr #0 {
  %2 = getelementptr inbounds nuw i8, ptr %0, i64 8
  %3 = load ptr, ptr %2, align 8, !tbaa !93
  %4 = load ptr, ptr %3, align 8, !tbaa !87
  %.not6 = icmp eq ptr %4, null
  br i1 %.not6, label %._crit_edge, label %.lr.ph

.lr.ph:                                           ; preds = %1, %.lr.ph
  %indvars.iv = phi i64 [ %indvars.iv.next, %.lr.ph ], [ 0, %1 ]
  %5 = phi ptr [ %8, %.lr.ph ], [ %4, %1 ]
  %indvars.iv.next = add nuw nsw i64 %indvars.iv, 1
  tail call void @sdsfree(ptr noundef nonnull %5) #30
  %6 = load ptr, ptr %2, align 8, !tbaa !93
  %7 = getelementptr inbounds nuw ptr, ptr %6, i64 %indvars.iv.next
  %8 = load ptr, ptr %7, align 8, !tbaa !87
  %.not = icmp eq ptr %8, null
  br i1 %.not, label %._crit_edge, label %.lr.ph, !llvm.loop !102

._crit_edge:                                      ; preds = %.lr.ph, %1
  %.lcssa = phi ptr [ %3, %1 ], [ %6, %.lr.ph ]
  tail call void @zfree(ptr noundef nonnull %.lcssa) #30
  tail call void @zfree(ptr noundef nonnull %0) #30
  ret void
}